; Function Attrs: mustprogress uwtable
define hidden noundef zeroext i1 @_ZN11OpenImageIO6v3_1_08SgiInput18read_offset_tablesEv(ptr noundef nonnull align 8 dereferenceable(376) %0) local_unnamed_addr #6 align 2 personality ptr @__gxx_personality_v0 {
  %2 = getelementptr inbounds nuw i8, ptr %0, i64 224
  %3 = load i16, ptr %2, align 8, !tbaa !65
  %4 = zext i16 %3 to i64
  %5 = getelementptr inbounds nuw i8, ptr %0, i64 226
  %6 = load i16, ptr %5, align 2, !tbaa !66
  %7 = zext i16 %6 to i64
  %8 = mul nuw nsw i64 %7, %4
  %9 = getelementptr inbounds nuw i8, ptr %0, i64 328
  %10 = getelementptr inbounds nuw i8, ptr %0, i64 336
  %11 = load ptr, ptr %10, align 8, !tbaa !93
  %12 = load ptr, ptr %9, align 8, !tbaa !15
  %13 = ptrtoint ptr %11 to i64
  %14 = ptrtoint ptr %12 to i64
  %15 = sub i64 %13, %14
  %16 = ashr exact i64 %15, 2
  %17 = icmp ugt i64 %8, %16
  br i1 %17, label %18, label %20

18:                                               ; preds = %1
  %19 = sub nuw nsw i64 %8, %16
  tail call void @_ZNSt6vectorIjSaIjEE17_M_default_appendEm(ptr noundef nonnull align 8 dereferenceable(24) %9, i64 noundef %19)
  br label %_ZNSt6vectorIjSaIjEE6resizeEm.exit

20:                                               ; preds = %1
  %21 = icmp ult i64 %8, %16
  br i1 %21, label %22, label %_ZNSt6vectorIjSaIjEE6resizeEm.exit

22:                                               ; preds = %20
  %23 = getelementptr inbounds nuw i32, ptr %12, i64 %8
  %.not.i.i = icmp eq ptr %11, %23
  br i1 %.not.i.i, label %_ZNSt6vectorIjSaIjEE6resizeEm.exit, label %24

24:                                               ; preds = %22
  store ptr %23, ptr %10, align 8, !tbaa !93
  br label %_ZNSt6vectorIjSaIjEE6resizeEm.exit

_ZNSt6vectorIjSaIjEE6resizeEm.exit:               ; preds = %18, %20, %22, %24
  %25 = getelementptr inbounds nuw i8, ptr %0, i64 352
  %26 = getelementptr inbounds nuw i8, ptr %0, i64 360
  %27 = load ptr, ptr %26, align 8, !tbaa !93
  %28 = load ptr, ptr %25, align 8, !tbaa !15
  %29 = ptrtoint ptr %27 to i64
  %30 = ptrtoint ptr %28 to i64
  %31 = sub i64 %29, %30
  %32 = ashr exact i64 %31, 2
  %33 = icmp ugt i64 %8, %32
  br i1 %33, label %34, label %36

34:                                               ; preds = %_ZNSt6vectorIjSaIjEE6resizeEm.exit
  %35 = sub nuw nsw i64 %8, %32
  tail call void @_ZNSt6vectorIjSaIjEE17_M_default_appendEm(ptr noundef nonnull align 8 dereferenceable(24) %25, i64 noundef %35)
  br label %_ZNSt6vectorIjSaIjEE6resizeEm.exit6

36:                                               ; preds = %_ZNSt6vectorIjSaIjEE6resizeEm.exit
  %37 = icmp ult i64 %8, %32
  br i1 %37, label %38, label %_ZNSt6vectorIjSaIjEE6resizeEm.exit6

38:                                               ; preds = %36
  %39 = getelementptr inbounds nuw i32, ptr %28, i64 %8
  %.not.i.i5 = icmp eq ptr %27, %39
  br i1 %.not.i.i5, label %_ZNSt6vectorIjSaIjEE6resizeEm.exit6, label %40

40:                                               ; preds = %38
  store ptr %39, ptr %26, align 8, !tbaa !93
  br label %_ZNSt6vectorIjSaIjEE6resizeEm.exit6

_ZNSt6vectorIjSaIjEE6resizeEm.exit6:              ; preds = %34, %36, %38, %40
  %41 = load ptr, ptr %9, align 8, !tbaa !15
  %42 = tail call noundef zeroext i1 @_ZN11OpenImageIO6v3_1_010ImageInput6ioreadEPvmm(ptr noundef nonnull align 8 dereferenceable(184) %0, ptr noundef nonnull %41, i64 noundef 4, i64 noundef %8)
  br i1 %42, label %43, label %_ZN11OpenImageIO6v3_1_011swap_endianIjEEvPT_i.exit13

43:                                               ; preds = %_ZNSt6vectorIjSaIjEE6resizeEm.exit6
  %44 = load ptr, ptr %25, align 8, !tbaa !15
  %45 = tail call noundef zeroext i1 @_ZN11OpenImageIO6v3_1_010ImageInput6ioreadEPvmm(ptr noundef nonnull align 8 dereferenceable(184) %0, ptr noundef nonnull %44, i64 noundef 4, i64 noundef %8)
  br i1 %45, label %46, label %_ZN11OpenImageIO6v3_1_011swap_endianIjEEvPT_i.exit13

46:                                               ; preds = %43
  %47 = load ptr, ptr %25, align 8, !tbaa !15
  %48 = load ptr, ptr %26, align 8, !tbaa !93
  %49 = ptrtoint ptr %48 to i64
  %50 = ptrtoint ptr %47 to i64
  %51 = sub i64 %49, %50
  %52 = lshr exact i64 %51, 2
  %53 = trunc i64 %52 to i32
  %54 = icmp sgt i32 %53, 0
  br i1 %54, label %.lr.ph.preheader.i, label %_ZN11OpenImageIO6v3_1_011swap_endianIjEEvPT_i.exit

.lr.ph.preheader.i:                               ; preds = %46
  %wide.trip.count.i = and i64 %52, 2147483647
  br label %.lr.ph.i

.lr.ph.i:                                         ; preds = %.lr.ph.i, %.lr.ph.preheader.i
  %indvars.iv.i = phi i64 [ 0, %.lr.ph.preheader.i ], [ %indvars.iv.next.i, %.lr.ph.i ]
  %55 = getelementptr inbounds nuw i32, ptr %47, i64 %indvars.iv.i
  %56 = load i32, ptr %55, align 4, !tbaa !82
  %57 = tail call noundef i32 @llvm.bswap.i32(i32 %56)
  store i32 %57, ptr %55, align 4, !tbaa !82
  %indvars.iv.next.i = add nuw nsw i64 %indvars.iv.i, 1
  %exitcond.not.i = icmp eq i64 %indvars.iv.next.i, %wide.trip.count.i
  br i1 %exitcond.not.i, label %_ZN11OpenImageIO6v3_1_011swap_endianIjEEvPT_i.exit, label %.lr.ph.i, !llvm.loop !94

_ZN11OpenImageIO6v3_1_011swap_endianIjEEvPT_i.exit: ; preds = %.lr.ph.i, %46
  %58 = load ptr, ptr %9, align 8, !tbaa !15
  %59 = load ptr, ptr %10, align 8, !tbaa !93
  %60 = ptrtoint ptr %59 to i64
  %61 = ptrtoint ptr %58 to i64
  %62 = sub i64 %60, %61
  %63 = lshr exact i64 %62, 2
  %64 = trunc i64 %63 to i32
  %65 = icmp sgt i32 %64, 0
  br i1 %65, label %.lr.ph.preheader.i7, label %_ZN11OpenImageIO6v3_1_011swap_endianIjEEvPT_i.exit13

.lr.ph.preheader.i7:                              ; preds = %_ZN11OpenImageIO6v3_1_011swap_endianIjEEvPT_i.exit
  %wide.trip.count.i8 = and i64 %63, 2147483647
  br label %.lr.ph.i9

.lr.ph.i9:                                        ; preds = %.lr.ph.i9, %.lr.ph.preheader.i7
  %indvars.iv.i10 = phi i64 [ 0, %.lr.ph.preheader.i7 ], [ %indvars.iv.next.i11, %.lr.ph.i9 ]
  %66 = getelementptr inbounds nuw i32, ptr %58, i64 %indvars.iv.i10
  %67 = load i32, ptr %66, align 4, !tbaa !82
  %68 = tail call noundef i32 @llvm.bswap.i32(i32 %67)
  store i32 %68, ptr %66, align 4, !tbaa !82
  %indvars.iv.next.i11 = add nuw nsw i64 %indvars.iv.i10, 1
  %exitcond.not.i12 = icmp eq i64 %indvars.iv.next.i11, %wide.trip.count.i8
  br i1 %exitcond.not.i12, label %_ZN11OpenImageIO6v3_1_011swap_endianIjEEvPT_i.exit13, label %.lr.ph.i9, !llvm.loop !94

_ZN11OpenImageIO6v3_1_011swap_endianIjEEvPT_i.exit13: ; preds = %.lr.ph.i9, %_ZN11OpenImageIO6v3_1_011swap_endianIjEEvPT_i.exit, %_ZNSt6vectorIjSaIjEE6resizeEm.exit6, %43
  %.0 = phi i1 [ false, %43 ], [ false, %_ZNSt6vectorIjSaIjEE6resizeEm.exit6 ], [ true, %_ZN11OpenImageIO6v3_1_011swap_endianIjEEvPT_i.exit ], [ true, %.lr.ph.i9 ]
  ret i1 %.0
}